; Function Attrs: nounwind uwtable
define ptr @l___private_Std_Sync_Channel_0__Std_CloseableChannel_Unbounded_close___rarg___lambda__2(ptr noundef %0, ptr noundef %1, ptr noundef %2) local_unnamed_addr #1 {
  %4 = getelementptr inbounds nuw i8, ptr %0, i64 24
  %5 = load i8, ptr %4, align 1, !tbaa !18
  %6 = icmp eq i8 %5, 0
  br i1 %6, label %7, label %38

7:                                                ; preds = %3
  %8 = getelementptr inbounds nuw i8, ptr %0, i64 8
  %9 = load ptr, ptr %8, align 8, !tbaa !10
  %10 = ptrtoint ptr %9 to i64
  %11 = and i64 %10, 1
  %.not28 = icmp eq i64 %11, 0
  br i1 %.not28, label %12, label %lean_inc.exit21

12:                                               ; preds = %7
  %.val.i = load i32, ptr %9, align 4, !tbaa !4
  %13 = icmp sgt i32 %.val.i, 0
  br i1 %13, label %14, label %16, !prof !9

14:                                               ; preds = %12
  %15 = add nuw i32 %.val.i, 1
  store i32 %15, ptr %9, align 4, !tbaa !4
  br label %lean_inc.exit21

16:                                               ; preds = %12
  %.not.i24 = icmp eq i32 %.val.i, 0
  br i1 %.not.i24, label %lean_inc.exit21, label %17

17:                                               ; preds = %16
  tail call void @lean_inc_ref_cold(ptr noundef nonnull %9) #7
  br label %lean_inc.exit21

lean_inc.exit21:                                  ; preds = %17, %16, %14, %7
  %18 = getelementptr inbounds nuw i8, ptr %0, i64 16
  %19 = load ptr, ptr %18, align 8, !tbaa !10
  %20 = ptrtoint ptr %19 to i64
  %21 = and i64 %20, 1
  %.not29 = icmp eq i64 %21, 0
  br i1 %.not29, label %22, label %lean_inc.exit

22:                                               ; preds = %lean_inc.exit21
  %.val.i25 = load i32, ptr %19, align 4, !tbaa !4
  %23 = icmp sgt i32 %.val.i25, 0
  br i1 %23, label %24, label %26, !prof !9

24:                                               ; preds = %22
  %25 = add nuw i32 %.val.i25, 1
  store i32 %25, ptr %19, align 4, !tbaa !4
  br label %lean_inc.exit

26:                                               ; preds = %22
  %.not.i26 = icmp eq i32 %.val.i25, 0
  br i1 %.not.i26, label %lean_inc.exit, label %27

27:                                               ; preds = %26
  tail call void @lean_inc_ref_cold(ptr noundef nonnull %19) #7
  br label %lean_inc.exit

lean_inc.exit:                                    ; preds = %27, %26, %24, %lean_inc.exit21
  %28 = ptrtoint ptr %0 to i64
  %29 = and i64 %28, 1
  %.not30 = icmp eq i64 %29, 0
  br i1 %.not30, label %30, label %lean_dec.exit20

30:                                               ; preds = %lean_inc.exit
  %31 = load i32, ptr %0, align 4, !tbaa !4
  %32 = icmp sgt i32 %31, 1
  br i1 %32, label %33, label %35, !prof !9

33:                                               ; preds = %30
  %34 = add nsw i32 %31, -1
  store i32 %34, ptr %0, align 4, !tbaa !4
  br label %lean_dec.exit20

35:                                               ; preds = %30
  %.not.i = icmp eq i32 %31, 0
  br i1 %.not.i, label %lean_dec.exit20, label %36

36:                                               ; preds = %35
  tail call void @lean_dec_ref_cold(ptr noundef nonnull %0) #7
  br label %lean_dec.exit20

lean_dec.exit20:                                  ; preds = %36, %35, %33, %lean_inc.exit
  %37 = tail call ptr @l___private_Std_Sync_Channel_0__Std_CloseableChannel_Unbounded_close___rarg___lambda__1(ptr noundef %19, ptr noundef %9, ptr nonnull poison, ptr noundef %1, ptr noundef %2)
  br label %54

38:                                               ; preds = %3
  %39 = ptrtoint ptr %0 to i64
  %40 = and i64 %39, 1
  %.not = icmp eq i64 %40, 0
  br i1 %.not, label %41, label %lean_dec.exit

41:                                               ; preds = %38
  %42 = load i32, ptr %0, align 4, !tbaa !4
  %43 = icmp sgt i32 %42, 1
  br i1 %43, label %44, label %46, !prof !9

44:                                               ; preds = %41
  %45 = add nsw i32 %42, -1
  store i32 %45, ptr %0, align 4, !tbaa !4
  br label %lean_dec.exit

46:                                               ; preds = %41
  %.not.i22 = icmp eq i32 %42, 0
  br i1 %.not.i22, label %lean_dec.exit, label %47

47:                                               ; preds = %46
  tail call void @lean_dec_ref_cold(ptr noundef nonnull %0) #7
  br label %lean_dec.exit

lean_dec.exit:                                    ; preds = %47, %46, %44, %38
  tail call void @lean_inc_heartbeat() #7
  %48 = tail call noalias ptr @mi_malloc_small(i64 noundef 24) #7
  %49 = icmp eq ptr %48, null
  br i1 %49, label %50, label %lean_alloc_ctor.exit

50:                                               ; preds = %lean_dec.exit
  tail call void @lean_internal_panic_out_of_memory() #8
  unreachable

lean_alloc_ctor.exit:                             ; preds = %lean_dec.exit
  %51 = getelementptr inbounds nuw i8, ptr %48, i64 4
  store i32 1, ptr %48, align 4, !tbaa !4
  store i32 16908312, ptr %51, align 4
  %52 = getelementptr inbounds nuw i8, ptr %48, i64 8
  store ptr inttoptr (i64 3 to ptr), ptr %52, align 8, !tbaa !10
  %53 = getelementptr inbounds nuw i8, ptr %48, i64 16
  store ptr %2, ptr %53, align 8, !tbaa !10
  br label %54

54:                                               ; preds = %lean_alloc_ctor.exit, %lean_dec.exit20
  %.0 = phi ptr [ %37, %lean_dec.exit20 ], [ %48, %lean_alloc_ctor.exit ]
  ret ptr %.0
}